target datalayout = "e-m:e-p270:32:32-p271:32:32-p272:64:64-i64:64-i128:128-f80:128-n8:16:32:64-S128"
target triple = "x86_64-pc-linux-gnu"

%struct.hb_object_header_t = type { %struct.hb_reference_count_t, %struct.hb_atomic_int_t, %struct.hb_atomic_ptr_t }
%struct.hb_reference_count_t = type { %struct.hb_atomic_int_t }
%struct.hb_atomic_int_t = type { i32 }
%struct.hb_atomic_ptr_t = type { ptr }
%struct.hb_segment_properties_t = type { i32, i32, ptr, ptr, ptr }
%struct.hb_buffer_t = type <{ %struct.hb_object_header_t, ptr, i32, i32, i32, i32, i32, i32, %struct.hb_segment_properties_t, i8, i8, i8, i8, i32, i32, i32, i32, [4 x i8], ptr, ptr, ptr, [2 x [5 x i32]], [2 x i32], i8, i8, [2 x i8], i32, i32, i32, ptr, ptr, ptr, i32, [4 x i8] }>
%struct.hb_glyph_info_t = type { i32, i32, i32, %union._hb_var_int_t, %union._hb_var_int_t }
%union._hb_var_int_t = type { i32 }

; Function Attrs: mustprogress nounwind uwtable
define internal noundef ptr @_ZL9hb_memcpyPvPKvm(ptr noalias noundef %0, ptr noalias noundef %1, i64 noundef %2) #0 {
  %4 = alloca ptr, align 8
  %5 = alloca ptr, align 8
  %6 = alloca ptr, align 8
  %7 = alloca i64, align 8
  store ptr %0, ptr %5, align 8
  store ptr %1, ptr %6, align 8
  store i64 %2, ptr %7, align 8
  %8 = load i64, ptr %7, align 8
  %9 = icmp ne i64 %8, 0
  br i1 %9, label %12, label %10

10:                                               ; preds = %3
  %11 = load ptr, ptr %5, align 8
  store ptr %11, ptr %4, align 8
  br label %16

12:                                               ; preds = %3
  %13 = load ptr, ptr %5, align 8
  %14 = load ptr, ptr %6, align 8
  %15 = load i64, ptr %7, align 8
  call void @llvm.memcpy.p0.p0.i64(ptr align 1 %13, ptr align 1 %14, i64 %15, i1 false)
  store ptr %13, ptr %4, align 8
  br label %16

16:                                               ; preds = %12, %10
  %17 = load ptr, ptr %4, align 8
  ret ptr %17
}

; Function Attrs: mustprogress uwtable
define linkonce_odr hidden noundef zeroext i1 @_ZN11hb_buffer_t6ensureEj(ptr noundef nonnull align 8 dereferenceable(220) %0, i32 noundef %1) #1 comdat align 2 {
  %3 = alloca ptr, align 8
  %4 = alloca i32, align 4
  store ptr %0, ptr %3, align 8
  store i32 %1, ptr %4, align 4
  %5 = load ptr, ptr %3, align 8
  %6 = load i32, ptr %4, align 4
  %7 = icmp ne i32 %6, 0
  br i1 %7, label %8, label %13

8:                                                ; preds = %2
  %9 = load i32, ptr %4, align 4
  %10 = getelementptr inbounds %struct.hb_buffer_t, ptr %5, i32 0, i32 16
  %11 = load i32, ptr %10, align 8
  %12 = icmp ult i32 %9, %11
  br i1 %12, label %13, label %14

13:                                               ; preds = %8, %2
  br label %17

14:                                               ; preds = %8
  %15 = load i32, ptr %4, align 4
  %16 = call noundef zeroext i1 @_ZN11hb_buffer_t7enlargeEj(ptr noundef nonnull align 8 dereferenceable(220) %5, i32 noundef %15)
  br label %17

17:                                               ; preds = %14, %13
  %18 = phi i1 [ true, %13 ], [ %16, %14 ]
  ret i1 %18
}

; Function Attrs: mustprogress uwtable
define hidden noundef zeroext i1 @_ZN11hb_buffer_t13make_room_forEjj(ptr noundef nonnull align 8 dereferenceable(220) %0, i32 noundef %1, i32 noundef %2) #1 align 2 {
  %4 = alloca i1, align 1
  %5 = alloca ptr, align 8
  %6 = alloca i32, align 4
  %7 = alloca i32, align 4
  store ptr %0, ptr %5, align 8
  store i32 %1, ptr %6, align 4
  store i32 %2, ptr %7, align 4
  %8 = load ptr, ptr %5, align 8
  %9 = getelementptr inbounds %struct.hb_buffer_t, ptr %8, i32 0, i32 15
  %10 = load i32, ptr %9, align 4
  %11 = load i32, ptr %7, align 4
  %12 = add i32 %10, %11
  %13 = call noundef zeroext i1 @_ZN11hb_buffer_t6ensureEj(ptr noundef nonnull align 8 dereferenceable(220) %8, i32 noundef %12)
  br i1 %13, label %15, label %14

14:                                               ; preds = %3
  store i1 false, ptr %4, align 1
  br label %45

15:                                               ; preds = %3
  %16 = getelementptr inbounds %struct.hb_buffer_t, ptr %8, i32 0, i32 19
  %17 = load ptr, ptr %16, align 8
  %18 = getelementptr inbounds %struct.hb_buffer_t, ptr %8, i32 0, i32 18
  %19 = load ptr, ptr %18, align 8
  %20 = icmp eq ptr %17, %19
  br i1 %20, label %21, label %44

21:                                               ; preds = %15
  %22 = getelementptr inbounds %struct.hb_buffer_t, ptr %8, i32 0, i32 15
  %23 = load i32, ptr %22, align 4
  %24 = load i32, ptr %7, align 4
  %25 = add i32 %23, %24
  %26 = getelementptr inbounds %struct.hb_buffer_t, ptr %8, i32 0, i32 13
  %27 = load i32, ptr %26, align 4
  %28 = load i32, ptr %6, align 4
  %29 = add i32 %27, %28
  %30 = icmp ugt i32 %25, %29
  br i1 %30, label %31, label %44

31:                                               ; preds = %21
  %32 = getelementptr inbounds %struct.hb_buffer_t, ptr %8, i32 0, i32 20
  %33 = load ptr, ptr %32, align 8
  %34 = getelementptr inbounds %struct.hb_buffer_t, ptr %8, i32 0, i32 19
  store ptr %33, ptr %34, align 8
  %35 = getelementptr inbounds %struct.hb_buffer_t, ptr %8, i32 0, i32 19
  %36 = load ptr, ptr %35, align 8
  %37 = getelementptr inbounds %struct.hb_buffer_t, ptr %8, i32 0, i32 18
  %38 = load ptr, ptr %37, align 8
  %39 = getelementptr inbounds %struct.hb_buffer_t, ptr %8, i32 0, i32 15
  %40 = load i32, ptr %39, align 4
  %41 = zext i32 %40 to i64
  %42 = mul i64 %41, 20
  %43 = call noundef ptr @_ZL9hb_memcpyPvPKvm(ptr noundef %36, ptr noundef %38, i64 noundef %42)
  br label %44

44:                                               ; preds = %31, %21, %15
  store i1 true, ptr %4, align 1
  br label %45

45:                                               ; preds = %44, %14
  %46 = load i1, ptr %4, align 1
  ret i1 %46
}

; Function Attrs: mustprogress uwtable
define linkonce_odr hidden noundef zeroext i1 @_ZN11hb_buffer_t11next_glyphsEj(ptr noundef nonnull align 8 dereferenceable(220) %0, i32 noundef %1) #1 comdat align 2 {
  %3 = alloca i1, align 1
  %4 = alloca ptr, align 8
  %5 = alloca i32, align 4
  store ptr %0, ptr %4, align 8
  store i32 %1, ptr %5, align 4
  %6 = load ptr, ptr %4, align 8
  %7 = getelementptr inbounds %struct.hb_buffer_t, ptr %6, i32 0, i32 11
  %8 = load i8, ptr %7, align 2
  %9 = trunc i8 %8 to i1
  br i1 %9, label %10, label %48

10:                                               ; preds = %2
  %11 = getelementptr inbounds %struct.hb_buffer_t, ptr %6, i32 0, i32 19
  %12 = load ptr, ptr %11, align 8
  %13 = getelementptr inbounds %struct.hb_buffer_t, ptr %6, i32 0, i32 18
  %14 = load ptr, ptr %13, align 8
  %15 = icmp ne ptr %12, %14
  br i1 %15, label %22, label %16

16:                                               ; preds = %10
  %17 = getelementptr inbounds %struct.hb_buffer_t, ptr %6, i32 0, i32 15
  %18 = load i32, ptr %17, align 4
  %19 = getelementptr inbounds %struct.hb_buffer_t, ptr %6, i32 0, i32 13
  %20 = load i32, ptr %19, align 4
  %21 = icmp ne i32 %18, %20
  br i1 %21, label %22, label %43

22:                                               ; preds = %16, %10
  %23 = load i32, ptr %5, align 4
  %24 = load i32, ptr %5, align 4
  %25 = call noundef zeroext i1 @_ZN11hb_buffer_t13make_room_forEjj(ptr noundef nonnull align 8 dereferenceable(220) %6, i32 noundef %23, i32 noundef %24)
  br i1 %25, label %27, label %26

26:                                               ; preds = %22
  store i1 false, ptr %3, align 1
  br label %53

27:                                               ; preds = %22
  %28 = getelementptr inbounds %struct.hb_buffer_t, ptr %6, i32 0, i32 19
  %29 = load ptr, ptr %28, align 8
  %30 = getelementptr inbounds %struct.hb_buffer_t, ptr %6, i32 0, i32 15
  %31 = load i32, ptr %30, align 4
  %32 = zext i32 %31 to i64
  %33 = getelementptr inbounds %struct.hb_glyph_info_t, ptr %29, i64 %32
  %34 = getelementptr inbounds %struct.hb_buffer_t, ptr %6, i32 0, i32 18
  %35 = load ptr, ptr %34, align 8
  %36 = getelementptr inbounds %struct.hb_buffer_t, ptr %6, i32 0, i32 13
  %37 = load i32, ptr %36, align 4
  %38 = zext i32 %37 to i64
  %39 = getelementptr inbounds %struct.hb_glyph_info_t, ptr %35, i64 %38
  %40 = load i32, ptr %5, align 4
  %41 = zext i32 %40 to i64
  %42 = mul i64 %41, 20
  call void @llvm.memmove.p0.p0.i64(ptr align 4 %33, ptr align 4 %39, i64 %42, i1 false)
  br label %43

43:                                               ; preds = %27, %16
  %44 = load i32, ptr %5, align 4
  %45 = getelementptr inbounds %struct.hb_buffer_t, ptr %6, i32 0, i32 15
  %46 = load i32, ptr %45, align 4
  %47 = add i32 %46, %44
  store i32 %47, ptr %45, align 4
  br label %48

48:                                               ; preds = %43, %2
  %49 = load i32, ptr %5, align 4
  %50 = getelementptr inbounds %struct.hb_buffer_t, ptr %6, i32 0, i32 13
  %51 = load i32, ptr %50, align 4
  %52 = add i32 %51, %49
  store i32 %52, ptr %50, align 4
  store i1 true, ptr %3, align 1
  br label %53

53:                                               ; preds = %48, %26
  %54 = load i1, ptr %3, align 1
  ret i1 %54
}

; Function Attrs: mustprogress uwtable
define hidden noundef zeroext i1 @_ZN11hb_buffer_t4syncEv(ptr noundef nonnull align 8 dereferenceable(220) %0) #1 align 2 {
  %2 = alloca ptr, align 8
  %3 = alloca i8, align 1
  store ptr %0, ptr %2, align 8
  %4 = load ptr, ptr %2, align 8
  store i8 0, ptr %3, align 1
  %5 = getelementptr inbounds %struct.hb_buffer_t, ptr %4, i32 0, i32 9
  %6 = load i8, ptr %5, align 8
  %7 = trunc i8 %6 to i1
  br i1 %7, label %8, label %15

8:                                                ; preds = %1
  %9 = getelementptr inbounds %struct.hb_buffer_t, ptr %4, i32 0, i32 14
  %10 = load i32, ptr %9, align 8
  %11 = getelementptr inbounds %struct.hb_buffer_t, ptr %4, i32 0, i32 13
  %12 = load i32, ptr %11, align 4
  %13 = sub i32 %10, %12
  %14 = call noundef zeroext i1 @_ZN11hb_buffer_t11next_glyphsEj(ptr noundef nonnull align 8 dereferenceable(220) %4, i32 noundef %13)
  br i1 %14, label %16, label %15

15:                                               ; preds = %8, %1
  br label %33

16:                                               ; preds = %8
  %17 = getelementptr inbounds %struct.hb_buffer_t, ptr %4, i32 0, i32 19
  %18 = load ptr, ptr %17, align 8
  %19 = getelementptr inbounds %struct.hb_buffer_t, ptr %4, i32 0, i32 18
  %20 = load ptr, ptr %19, align 8
  %21 = icmp ne ptr %18, %20
  br i1 %21, label %22, label %29

22:                                               ; preds = %16
  %23 = getelementptr inbounds %struct.hb_buffer_t, ptr %4, i32 0, i32 18
  %24 = load ptr, ptr %23, align 8
  %25 = getelementptr inbounds %struct.hb_buffer_t, ptr %4, i32 0, i32 20
  store ptr %24, ptr %25, align 8
  %26 = getelementptr inbounds %struct.hb_buffer_t, ptr %4, i32 0, i32 19
  %27 = load ptr, ptr %26, align 8
  %28 = getelementptr inbounds %struct.hb_buffer_t, ptr %4, i32 0, i32 18
  store ptr %27, ptr %28, align 8
  br label %29

29:                                               ; preds = %22, %16
  %30 = getelementptr inbounds %struct.hb_buffer_t, ptr %4, i32 0, i32 15
  %31 = load i32, ptr %30, align 4
  %32 = getelementptr inbounds %struct.hb_buffer_t, ptr %4, i32 0, i32 14
  store i32 %31, ptr %32, align 8
  store i8 1, ptr %3, align 1
  br label %33

33:                                               ; preds = %29, %15
  %34 = getelementptr inbounds %struct.hb_buffer_t, ptr %4, i32 0, i32 11
  store i8 0, ptr %34, align 2
  %35 = getelementptr inbounds %struct.hb_buffer_t, ptr %4, i32 0, i32 15
  store i32 0, ptr %35, align 4
  %36 = getelementptr inbounds %struct.hb_buffer_t, ptr %4, i32 0, i32 18
  %37 = load ptr, ptr %36, align 8
  %38 = getelementptr inbounds %struct.hb_buffer_t, ptr %4, i32 0, i32 19
  store ptr %37, ptr %38, align 8
  %39 = getelementptr inbounds %struct.hb_buffer_t, ptr %4, i32 0, i32 13
  store i32 0, ptr %39, align 4
  %40 = load i8, ptr %3, align 1
  %41 = trunc i8 %40 to i1
  ret i1 %41
}