; Function Attrs: mustprogress nounwind uwtable
define hidden noundef zeroext i1 @_ZN11hb_buffer_t4syncEv(ptr nocapture noundef nonnull align 8 dereferenceable(220) %0) local_unnamed_addr #2 align 2 {
  %2 = getelementptr inbounds i8, ptr %0, i64 80
  %3 = load i8, ptr %2, align 8
  %4 = trunc i8 %3 to i1
  br i1 %4, label %5, label %_ZN11hb_buffer_t11next_glyphsEj.exit

5:                                                ; preds = %1
  %6 = getelementptr inbounds i8, ptr %0, i64 88
  %7 = load i32, ptr %6, align 8
  %8 = getelementptr inbounds i8, ptr %0, i64 84
  %9 = load i32, ptr %8, align 4
  %10 = sub i32 %7, %9
  %11 = getelementptr inbounds i8, ptr %0, i64 82
  %12 = load i8, ptr %11, align 2
  %13 = trunc i8 %12 to i1
  br i1 %13, label %14, label %53

14:                                               ; preds = %5
  %15 = getelementptr inbounds i8, ptr %0, i64 112
  %16 = load ptr, ptr %15, align 8
  %17 = getelementptr inbounds i8, ptr %0, i64 104
  %18 = load ptr, ptr %17, align 8
  %.not.i = icmp eq ptr %16, %18
  %19 = getelementptr inbounds i8, ptr %0, i64 92
  %20 = load i32, ptr %19, align 4
  %.not6.i = icmp eq i32 %20, %9
  %or.cond.i = select i1 %.not.i, i1 %.not6.i, i1 false
  br i1 %or.cond.i, label %50, label %._crit_edge.i

._crit_edge.i:                                    ; preds = %14
  %21 = add i32 %20, %10
  %.not.i.i.i = icmp eq i32 %21, 0
  %22 = getelementptr inbounds i8, ptr %0, i64 96
  %23 = load i32, ptr %22, align 8
  %24 = icmp ugt i32 %23, %21
  %or.cond.i.i.i = select i1 %.not.i.i.i, i1 true, i1 %24
  br i1 %or.cond.i.i.i, label %_ZN11hb_buffer_t6ensureEj.exit.thread.i.i, label %_ZN11hb_buffer_t6ensureEj.exit.i.i

_ZN11hb_buffer_t6ensureEj.exit.i.i:               ; preds = %._crit_edge.i
  %25 = tail call noundef zeroext i1 @_ZN11hb_buffer_t7enlargeEj(ptr noundef nonnull align 8 dereferenceable(220) %0, i32 noundef %21)
  br i1 %25, label %_ZN11hb_buffer_t6ensureEj.exit.i._ZN11hb_buffer_t6ensureEj.exit.thread.i_crit_edge.i, label %_ZN11hb_buffer_t11next_glyphsEj.exit

_ZN11hb_buffer_t6ensureEj.exit.i._ZN11hb_buffer_t6ensureEj.exit.thread.i_crit_edge.i: ; preds = %_ZN11hb_buffer_t6ensureEj.exit.i.i
  %.pre7.i = load ptr, ptr %15, align 8
  %.pre8.i = load ptr, ptr %17, align 8
  %.pre11.pre.i = load i32, ptr %19, align 4
  %.pre3.pre = load i32, ptr %8, align 4
  br label %_ZN11hb_buffer_t6ensureEj.exit.thread.i.i

_ZN11hb_buffer_t6ensureEj.exit.thread.i.i:        ; preds = %_ZN11hb_buffer_t6ensureEj.exit.i._ZN11hb_buffer_t6ensureEj.exit.thread.i_crit_edge.i, %._crit_edge.i
  %.pre3 = phi i32 [ %.pre3.pre, %_ZN11hb_buffer_t6ensureEj.exit.i._ZN11hb_buffer_t6ensureEj.exit.thread.i_crit_edge.i ], [ %9, %._crit_edge.i ]
  %.pre11.i = phi i32 [ %.pre11.pre.i, %_ZN11hb_buffer_t6ensureEj.exit.i._ZN11hb_buffer_t6ensureEj.exit.thread.i_crit_edge.i ], [ %20, %._crit_edge.i ]
  %26 = phi ptr [ %.pre8.i, %_ZN11hb_buffer_t6ensureEj.exit.i._ZN11hb_buffer_t6ensureEj.exit.thread.i_crit_edge.i ], [ %18, %._crit_edge.i ]
  %27 = phi ptr [ %.pre7.i, %_ZN11hb_buffer_t6ensureEj.exit.i._ZN11hb_buffer_t6ensureEj.exit.thread.i_crit_edge.i ], [ %16, %._crit_edge.i ]
  %28 = icmp eq ptr %27, %26
  br i1 %28, label %29, label %39

29:                                               ; preds = %_ZN11hb_buffer_t6ensureEj.exit.thread.i.i
  %30 = add i32 %.pre11.i, %10
  %31 = add i32 %.pre3, %10
  %32 = icmp ugt i32 %30, %31
  br i1 %32, label %33, label %39

33:                                               ; preds = %29
  %34 = getelementptr inbounds i8, ptr %0, i64 120
  %35 = load ptr, ptr %34, align 8
  store ptr %35, ptr %15, align 8
  %.not.i4.i.i = icmp eq i32 %.pre11.i, 0
  br i1 %.not.i4.i.i, label %39, label %36

36:                                               ; preds = %33
  %37 = zext i32 %.pre11.i to i64
  %38 = mul nuw nsw i64 %37, 20
  tail call void @llvm.memcpy.p0.p0.i64(ptr align 1 %35, ptr readonly align 1 %26, i64 %38, i1 false), !alias.scope !12
  %.pre9.i = load ptr, ptr %15, align 8
  %.pre10.i = load i32, ptr %19, align 4
  %.pre12.i = load ptr, ptr %17, align 8
  %.pre = load i32, ptr %8, align 4
  br label %39

39:                                               ; preds = %36, %33, %29, %_ZN11hb_buffer_t6ensureEj.exit.thread.i.i
  %40 = phi i32 [ %.pre3, %_ZN11hb_buffer_t6ensureEj.exit.thread.i.i ], [ %.pre3, %29 ], [ %.pre3, %33 ], [ %.pre, %36 ]
  %41 = phi ptr [ %26, %_ZN11hb_buffer_t6ensureEj.exit.thread.i.i ], [ %26, %29 ], [ %26, %33 ], [ %.pre12.i, %36 ]
  %42 = phi i32 [ %.pre11.i, %_ZN11hb_buffer_t6ensureEj.exit.thread.i.i ], [ %.pre11.i, %29 ], [ 0, %33 ], [ %.pre10.i, %36 ]
  %43 = phi ptr [ %27, %_ZN11hb_buffer_t6ensureEj.exit.thread.i.i ], [ %27, %29 ], [ %35, %33 ], [ %.pre9.i, %36 ]
  %44 = zext i32 %42 to i64
  %45 = getelementptr inbounds %struct.hb_glyph_info_t, ptr %43, i64 %44
  %46 = zext i32 %40 to i64
  %47 = getelementptr inbounds %struct.hb_glyph_info_t, ptr %41, i64 %46
  %48 = zext i32 %10 to i64
  %49 = mul nuw nsw i64 %48, 20
  tail call void @llvm.memmove.p0.p0.i64(ptr align 4 %45, ptr align 4 %47, i64 %49, i1 false)
  %.pre14.i = load i32, ptr %19, align 4
  br label %50

50:                                               ; preds = %39, %14
  %51 = phi i32 [ %.pre14.i, %39 ], [ %9, %14 ]
  %52 = add i32 %51, %10
  store i32 %52, ptr %19, align 4
  br label %53

53:                                               ; preds = %5, %50
  %54 = getelementptr inbounds i8, ptr %0, i64 112
  %55 = load ptr, ptr %54, align 8
  %56 = getelementptr inbounds i8, ptr %0, i64 104
  %57 = load ptr, ptr %56, align 8
  %.not = icmp eq ptr %55, %57
  br i1 %.not, label %60, label %58

58:                                               ; preds = %53
  %59 = getelementptr inbounds i8, ptr %0, i64 120
  store ptr %57, ptr %59, align 8
  store ptr %55, ptr %56, align 8
  br label %60

60:                                               ; preds = %58, %53
  %61 = getelementptr inbounds i8, ptr %0, i64 92
  %62 = load i32, ptr %61, align 4
  store i32 %62, ptr %6, align 8
  br label %_ZN11hb_buffer_t11next_glyphsEj.exit

_ZN11hb_buffer_t11next_glyphsEj.exit:             ; preds = %_ZN11hb_buffer_t6ensureEj.exit.i.i, %1, %60
  %.0 = phi i1 [ true, %60 ], [ false, %1 ], [ false, %_ZN11hb_buffer_t6ensureEj.exit.i.i ]
  %63 = getelementptr inbounds i8, ptr %0, i64 82
  store i8 0, ptr %63, align 2
  %64 = getelementptr inbounds i8, ptr %0, i64 92
  store i32 0, ptr %64, align 4
  %65 = getelementptr inbounds i8, ptr %0, i64 104
  %66 = load ptr, ptr %65, align 8
  %67 = getelementptr inbounds i8, ptr %0, i64 112
  store ptr %66, ptr %67, align 8
  %68 = getelementptr inbounds i8, ptr %0, i64 84
  store i32 0, ptr %68, align 4
  ret i1 %.0
}